target datalayout = "e-m:e-p270:32:32-p271:32:32-p272:64:64-i64:64-i128:128-f80:128-n8:16:32:64-S128"
target triple = "x86_64-pc-linux-gnu"

%union.ufmt_args = type { i64 }
%struct.u_printf_stream_handler = type { ptr, ptr }

; Function Attrs: mustprogress uwtable
define internal noundef i32 @_ZL21u_printf_char_handlerPK23u_printf_stream_handlerPvP13ULocaleBundlePK18u_printf_spec_infoPK9ufmt_args(ptr noundef %0, ptr noundef %1, ptr noundef %2, ptr noundef %3, ptr noundef %4) #0 {
  %6 = alloca ptr, align 8
  %7 = alloca ptr, align 8
  %8 = alloca ptr, align 8
  %9 = alloca ptr, align 8
  %10 = alloca ptr, align 8
  %11 = alloca [3 x i16], align 2
  %12 = alloca i32, align 4
  %13 = alloca i32, align 4
  %14 = alloca i8, align 1
  store ptr %0, ptr %6, align 8, !tbaa !3
  store ptr %1, ptr %7, align 8, !tbaa !10
  store ptr %2, ptr %8, align 8, !tbaa !13
  store ptr %3, ptr %9, align 8, !tbaa !19
  store ptr %4, ptr %10, align 8, !tbaa !21
  call void @llvm.lifetime.start.p0(i64 6, ptr %11) #9
  call void @llvm.lifetime.start.p0(i64 4, ptr %12) #9
  store i32 1, ptr %12, align 4, !tbaa !36
  call void @llvm.lifetime.start.p0(i64 4, ptr %13) #9
  call void @llvm.lifetime.start.p0(i64 1, ptr %14) #9
  %15 = load ptr, ptr %10, align 8, !tbaa !21
  %16 = getelementptr inbounds %union.ufmt_args, ptr %15, i64 0
  %17 = load i64, ptr %16, align 8, !tbaa !69
  %18 = trunc i64 %17 to i8
  store i8 %18, ptr %14, align 1, !tbaa !69
  %19 = getelementptr inbounds [3 x i16], ptr %11, i64 0, i64 0
  %20 = call noundef ptr @_Z26ufmt_defaultCPToUnicode_77PKciPDsi(ptr noundef %14, i32 noundef 2, ptr noundef %19, i32 noundef 3)
  %21 = load i8, ptr %14, align 1, !tbaa !69
  %22 = zext i8 %21 to i32
  %23 = icmp ne i32 %22, 0
  br i1 %23, label %24, label %27

24:                                               ; preds = %5
  %25 = getelementptr inbounds [3 x i16], ptr %11, i64 0, i64 0
  %26 = call i32 @u_strlen_77(ptr noundef %25)
  store i32 %26, ptr %12, align 4, !tbaa !36
  br label %27

27:                                               ; preds = %24, %5
  %28 = load ptr, ptr %6, align 8, !tbaa !3
  %29 = getelementptr inbounds nuw %struct.u_printf_stream_handler, ptr %28, i32 0, i32 1
  %30 = load ptr, ptr %29, align 8, !tbaa !85
  %31 = load ptr, ptr %7, align 8, !tbaa !10
  %32 = load ptr, ptr %9, align 8, !tbaa !19
  %33 = getelementptr inbounds [3 x i16], ptr %11, i64 0, i64 0
  %34 = load i32, ptr %12, align 4, !tbaa !36
  %35 = call noundef i32 %30(ptr noundef %31, ptr noundef %32, ptr noundef %33, i32 noundef %34)
  store i32 %35, ptr %13, align 4, !tbaa !36
  %36 = load i32, ptr %13, align 4, !tbaa !36
  call void @llvm.lifetime.end.p0(i64 1, ptr %14) #9
  call void @llvm.lifetime.end.p0(i64 4, ptr %13) #9
  call void @llvm.lifetime.end.p0(i64 4, ptr %12) #9
  call void @llvm.lifetime.end.p0(i64 6, ptr %11) #9
  ret i32 %36
}