; Function Attrs: mustprogress uwtable
define internal noundef i32 @_ZL21u_printf_char_handlerPK23u_printf_stream_handlerPvP13ULocaleBundlePK18u_printf_spec_infoPK9ufmt_args(ptr noundef readonly captures(none) %0, ptr noundef %1, ptr readnone captures(none) %2, ptr noundef %3, ptr noundef readonly captures(none) %4) #0 {
  %6 = alloca [3 x i16], align 2
  %7 = alloca i8, align 1
  call void @llvm.lifetime.start.p0(i64 6, ptr nonnull %6) #9
  call void @llvm.lifetime.start.p0(i64 1, ptr nonnull %7) #9
  %8 = load i64, ptr %4, align 8, !tbaa !20
  %9 = trunc i64 %8 to i8
  store i8 %9, ptr %7, align 1, !tbaa !20
  %10 = call noundef ptr @_Z26ufmt_defaultCPToUnicode_77PKciPDsi(ptr noundef nonnull %7, i32 noundef 2, ptr noundef nonnull %6, i32 noundef 3)
  %11 = load i8, ptr %7, align 1, !tbaa !20
  %.not = icmp eq i8 %11, 0
  br i1 %.not, label %14, label %12

12:                                               ; preds = %5
  %13 = call i32 @u_strlen_77(ptr noundef nonnull %6)
  br label %14

14:                                               ; preds = %12, %5
  %.0 = phi i32 [ %13, %12 ], [ 1, %5 ]
  %15 = getelementptr inbounds nuw i8, ptr %0, i64 8
  %16 = load ptr, ptr %15, align 8, !tbaa !64
  %17 = call noundef i32 %16(ptr noundef %1, ptr noundef %3, ptr noundef nonnull %6, i32 noundef %.0)
  call void @llvm.lifetime.end.p0(i64 1, ptr nonnull %7) #9
  call void @llvm.lifetime.end.p0(i64 6, ptr nonnull %6) #9
  ret i32 %17
}